-----BEGIN CERTIFICATE-----
MIIIjDCCBHSgAwIBAgILAKdtPp8cAM1xJVQwDQYJKoZIhvcNAQELBQAwVDELMAkG
A1UEBhMCVEgxLzAtBgNVBAoMJlNjaG9vbCBvZiBJbmZvcm1hdGlvbiBUZWNobm9s
b2d5IEtNVVRUMRQwEgYDVQQDDAtTSVRDZXJ0QXV0aDAeFw0yMjA5MDEwNDA0MDBa
Fw0yMzA5MDEwNDA0MDBaMGsxCzAJBgNVBAYTAlRIMSUwIwYDVQQKDBxJTlQyMjIg
SW50ZWdyYXRlZCBQcm9qZWN0IElJMRMwEQYDVQQLDApPQVNJUC1BVC0zMSAwHgYD
VQQDDBdpcDIxYXQzLnNpdC5rbXV0dC5hYy50aDCCASIwDQYJKoZIhvcNAQEBBQAD
ggEPADCCAQoCggEBAK7RKcfRE8p4hGNStdQpF38pgG5T4xeroK1Yay2+GKKeIi92
sBJQJKV/OQRfTBexwjFSk5TSyum375hS00Qm+aL88klI5TZgS3S91cC/myYG4TUK
Yaf1DbkBEZ6pxAyVog/JvKXU8ws+TmR75Coexq+K+XRVDNfuBphgJM6zVpmGpAka
k2naHflpUK3u8PeocEr8vqagV+/KtsmIn2HM1aCJ0u4Xn83zzMqX+lpyGDIeXiuE
RN79XcsQHmrp3MUF4ghfEZESGEugZFRqrV1foVVFEcNiI8uXw7m/V9+ycJWYP2TL
OYa2MsOVrKVm6H6UbWOm/gQsjFWvCb84vqGSfyUCAwEAAaOCAkYwggJCMAkGA1Ud
EwQCMAAwawYDVR0gBGQwYjAGBgQqAwMEMAYGBCoDAwUwBgYEKgMDBjBIBgQqAwMH
MEAwPgYIKwYBBQUHAgEWMmh0dHBzOi8vY2Fwa2kxMi5zaXQua211dHQuYWMudGgv
cGtpL3B1Yi9jcHMvbWVkaXVtMBEGCWCGSAGG+EIBAQQEAwIGQDALBgNVHQ8EBAMC
BPAwEwYDVR0lBAwwCgYIKwYBBQUHAwEwQwYJYIZIAYb4QgENBDYWNFdXVy1TZXJ2
ZXIgb2YgU2Nob29sIG9mIEluZm9ybWF0aW9uIFRlY2hub2xvZ3kgS01VVFQwHQYD
VR0OBBYEFNbUMx1s0BwdaBLxeo7+SZnmmmtBMB8GA1UdIwQYMBaAFFhKvLVWue1F
v+j4xL9PGLmhjiQaMEoGA1UdEQRDMEGCDDIwMi40NC45LjEwNoIMMjAyLjQ0Ljku
MTA3hwQKBDhTgR1udXR3YXJhLm5pY2VAbWFpbC5rbXV0dC5hYy50aDAjBgNVHRIE
HDAagRhtZi1hZG1pbkBzaXQua211dHQuYWMudGgwVQYIKwYBBQUHAQEESTBHMEUG
CCsGAQUFBzAChjlodHRwczovL2NhcGtpMTIuc2l0LmttdXR0LmFjLnRoL3BraS9w
dWIvY2FjZXJ0L2NhY2VydC5jcnQwRgYDVR0fBD8wPTA7oDmgN4Y1aHR0cHM6Ly9j
YXBraTEyLnNpdC5rbXV0dC5hYy50aC9wa2kvcHViL2NybC9jYWNybC5jcmwwDQYJ
KoZIhvcNAQELBQADggQBAIovwbJPxN6WxsGjOgnobRtihPfxmTUB+Z32SqRzZtUL
CMmmyahRdt326aJNSPBl79bG3fmOSCH4dDFfYbM9zRYz/98t9NGcQ8+6YDSadI+7
NO2rwMGjrbcjSigfWqG5suJmqfVprQDNtaInMjgxtgSZpvtXKC6vLf2RO9GZavmq
P0/vuKQhyS43jiMbGu5aCNFtCokRv09O2kWvZpX98+E0VTUg7utSNdl/mjh8ymKR
UDlZ5GUUQKOYjjT7Bb1ZSNFkL6Ikl9xy0UJDva4fSpkdTr6J3b0rDirogxGo11M9
/IVK1otcXpGbEoUkYqDOPO4uCu3OPc2HrReI+vWi//7cXbLazLp5EP8Ris5CX07g
eF4Qx+1BndjxtzRuu4mgLXH//hDedSXkMPSRjKHfiyDwmibNtEe9TFkm81pfqoTv
jtTN9L44Ff/jwbG6y3/DbwgJDgohvx18rbkJyDrLW0DiY6SO21mBAPeEAn2vfBrM
qPmuwXwvfIBPJF2X4qcl62p6bChLqKpoAaMZHwBnWfWuM5dQVFI2MLARUQ6ZehEq
gxLfUBs0U5wlkWfr0HxuNHCs+hyUg7XMDC4JAuONJs1TozdHhAl1e8RTvcIA075Q
kl6WDKO9QpGiE5d0TlOYlj4R7UHQkxcWAR5kQ9ik7PAVilC94KuASAPFO6rfBXYr
zywJtFq+K8IdueyolvUF4JsIu+N1DI/1B+AiRZ4kCJFjmy6H6Xi53fj6a9b2u+RR
qPEjwjZD+pjGF/Hnimajy9kiJv4ETN8Rl7kg9KoOffGLX15YEkzkaBMqWDwySQL7
3dlH8pOAMwMsiBkEeAuIJeBqnJf70C7NzOU1zfyq0H02QjDsMLoUbBNB/NdSGyod
U/LP5On+IxSwWHWLIRjzlj/OVg2derKDDnR6CWEVhfO1G0aR7KqT2XqIZXr/6BHj
Leblifawk86XfAvJ6DBXHdM9WnbIbF2IqXzoQDGKegBQEj6KYFs2H2XBG5VuIGfN
moZLzY6nn7XvHFjHWIFBcQ2QIBwUBkdC85rLaFuzD4AjxyzMDJLnQ/F1P9aUYOpn
hTq1ZlU3uHYbZZlEcMvdd4EyjbGTjv/oAwIkNyAeaoqJ+/hxVALhteiGHYL7difQ
ka7KAu+flzSaTye1GZ0geJf8QfHb1ZQUxSf65/y8VvWE6h2P50xtvEqFkGzT7U+L
GzpDYZZ+sHLC1cNPQalEj1nY6V5Rq2rBdyLGT5Ds1/o0yKz9VJTa/PdVyWn5YleK
gpJW3owIYIXIRXfsbhocpl1DBvUgr/Yo2GF6qpTQMTY8xaq0S5Toma/mkeZ6iXDb
uaaPwU+hndlttZ+PyXBBscI/NnoLXrMI650TwecLvBU=
-----END CERTIFICATE-----
Certificate:
    Data:
        Version: 3 (0x2)
        Serial Number: 0 (0x0)
        Signature Algorithm: sha256WithRSAEncryption
        Issuer: C=TH, O=School of Information Technology KMUTT, CN=SITCertAuth
        Validity
            Not Before: Feb 26 03:27:08 2019 GMT
            Not After : Feb 23 03:27:08 2029 GMT
        Subject: C=TH, O=School of Information Technology KMUTT, CN=SITCertAuth
        Subject Public Key Info:
            Public Key Algorithm: rsaEncryption
            RSA Public Key: (8192 bit)
                Modulus (8192 bit):
                    00:dc:84:34:9c:e4:59:d8:99:30:7b:1a:de:bf:b2:
                    59:d3:4b:f4:a6:25:8f:c9:85:d5:07:a4:24:7c:0f:
                    f4:b5:cc:44:ef:0c:38:76:be:49:f2:03:1f:db:15:
                    fb:fc:f6:10:aa:7d:0d:00:9e:27:ab:36:fb:0b:4e:
                    c1:dc:67:05:40:9a:9a:ba:72:78:5b:7a:98:cc:41:
                    44:10:3b:3c:25:62:81:e8:cf:c3:b6:be:e3:5a:ad:
                    0a:1d:74:ea:71:c2:63:7f:92:ce:3f:ed:21:48:3f:
                    1f:6b:c1:1a:de:59:81:61:c7:75:1a:4a:47:b8:09:
                    43:45:bc:c0:23:44:9b:77:bc:e2:2b:f0:3f:a1:70:
                    f6:ac:60:3e:6b:c1:aa:a2:4e:aa:ea:83:50:07:34:
                    8c:00:98:7b:38:6e:83:0f:1d:df:8b:29:b6:f7:7c:
                    14:e1:7a:fa:a2:81:a7:59:2c:8d:aa:a2:a4:47:d5:
                    29:a3:f6:a5:3b:35:d6:80:97:97:e5:4c:0e:22:76:
                    62:87:37:fe:83:5b:6f:04:53:46:d6:aa:37:2b:de:
                    04:70:cf:c6:12:3e:f6:ab:14:a9:3d:c3:e7:c4:80:
                    43:05:78:7b:43:d5:06:35:34:3a:98:97:60:5a:62:
                    f7:bb:fd:9f:f1:65:f3:29:e7:cf:8c:e4:85:aa:13:
                    b3:3a:4a:72:bb:eb:35:cb:db:50:19:b3:29:eb:d4:
                    6e:74:5b:2e:29:a9:25:ed:cb:15:1a:eb:19:08:20:
                    9c:95:53:32:4b:db:2c:9f:d0:92:c0:14:33:36:79:
                    ab:59:4b:3c:7b:ea:92:00:1d:d6:e2:23:50:70:6f:
                    5f:98:a6:43:9f:c4:eb:fc:ad:8e:b6:20:74:ba:38:
                    a9:a3:03:f1:98:8a:da:b8:83:a1:c3:62:31:ed:3d:
                    f2:9a:ab:90:bd:2d:55:e2:30:21:29:a5:9e:dc:93:
                    21:a6:5f:f7:5a:d3:a7:f3:42:7d:c0:47:09:eb:21:
                    90:d9:8f:c0:ec:9b:9a:24:2d:18:07:22:51:4a:37:
                    fb:ef:d8:30:5d:6d:e5:25:9e:4e:a3:bf:97:05:a1:
                    25:33:fd:15:c1:df:04:17:c4:6b:08:80:19:1b:14:
                    6b:d9:e8:aa:1e:98:55:dc:bc:03:5c:f6:27:08:e5:
                    6d:1c:96:74:2f:dd:31:4b:98:d5:f9:19:2e:c5:a4:
                    e8:79:d7:35:2b:a5:cc:cb:21:50:73:cf:ac:92:6a:
                    da:68:67:6c:66:66:44:0a:96:83:60:50:47:06:30:
                    b4:39:5e:20:1f:3c:82:cd:7a:0a:ca:91:da:f4:82:
                    b3:92:da:d9:7e:ae:1b:cc:75:5b:86:9c:b0:ad:a7:
                    33:10:a0:13:d9:e4:9b:f2:20:dc:a4:ff:a9:a5:fc:
                    63:49:d9:38:e0:08:8c:ee:d2:2b:b4:3a:b3:d8:7f:
                    1b:10:1e:b9:61:c3:88:53:c5:16:31:07:fd:fb:1a:
                    9e:c9:2b:eb:77:9c:6c:f3:dd:ea:63:c7:19:15:c6:
                    02:30:6e:5f:ec:b2:49:96:db:9e:c2:2b:98:27:62:
                    48:df:be:ad:89:fc:4a:5f:00:38:b2:ef:d1:66:8b:
                    d3:43:dd:7f:50:19:91:a8:49:b3:d5:fc:1b:e0:37:
                    e2:1b:32:bb:dd:94:9c:ae:ea:0c:fe:35:dc:dc:bb:
                    8e:54:71:a9:e9:79:08:e6:ab:e8:b1:34:6a:fe:b7:
                    e3:78:63:f1:1e:bd:89:85:36:f3:58:be:3c:eb:fa:
                    40:d8:13:a6:5e:de:c9:f0:24:dc:aa:d7:ae:4e:d1:
                    38:8a:a0:fd:a3:83:82:d1:84:30:c4:51:b4:c8:48:
                    27:0e:b3:3c:93:fb:da:cd:73:5d:88:7e:34:91:46:
                    aa:dc:6e:7d:d0:a4:7f:99:57:f9:5b:ed:ab:2f:b0:
                    77:c2:51:ef:ce:cd:52:6c:dc:b2:3b:9d:e0:81:2e:
                    fa:db:dd:30:48:3b:1c:cb:8f:7b:6d:e0:dc:8b:72:
                    72:e9:71:b6:28:64:a3:d6:4e:e6:f6:80:e2:6a:82:
                    ee:c3:4c:5c:ab:90:52:0b:4d:3f:d0:f5:d4:97:5e:
                    64:6d:bb:07:c0:72:db:08:cf:b6:81:e5:63:fa:02:
                    b0:6d:25:67:1d:97:b0:81:2d:57:c9:2b:fc:40:f7:
                    fd:b3:84:06:c9:e0:7b:8e:c3:01:70:d6:e9:03:a7:
                    2f:29:98:6e:76:0d:9f:b6:03:51:30:21:ab:23:53:
                    d1:8b:d8:30:a9:5b:c5:c1:f1:5a:5a:7b:36:5c:53:
                    ab:16:65:d1:f7:60:e8:29:89:06:50:b1:c3:cf:88:
                    eb:63:9a:44:1f:a6:e5:dc:93:f4:b7:0c:31:3b:7a:
                    06:d9:7d:76:15:26:e9:62:fd:13:83:52:29:5e:2c:
                    1e:06:40:74:dc:9a:bc:1d:2c:45:fb:66:b9:48:f4:
                    ff:c2:bf:08:d2:7e:85:f2:47:0f:a3:e9:10:d3:14:
                    41:c7:55:05:35:fd:ef:bb:ad:74:52:4a:b4:97:a5:
                    8a:a3:27:44:f0:5c:86:ad:a6:84:f6:85:de:25:00:
                    b5:6b:aa:b8:01:ce:fb:d4:ce:c4:c1:b4:f3:2b:54:
                    65:5b:03:29:47:65:5d:8e:f7:47:c4:1b:cd:d5:6b:
                    00:bb:c4:db:09:ee:9a:e6:26:e5:25:e9:66:ac:64:
                    b8:47:70:4b:87:f7:89:eb:1a:ed:0d:2a:82:ab:a9:
                    f2:53:b6:4f:69
                Exponent: 65537 (0x10001)
        X509v3 extensions:
            X509v3 Basic Constraints: critical
                CA:TRUE
            X509v3 Key Usage: 
                Certificate Sign, CRL Sign
            X509v3 Subject Key Identifier: 
                58:4A:BC:B5:56:B9:ED:45:BF:E8:F8:C4:BF:4F:18:B9:A1:8E:24:1A
            X509v3 Authority Key Identifier: 
                keyid:58:4A:BC:B5:56:B9:ED:45:BF:E8:F8:C4:BF:4F:18:B9:A1:8E:24:1A

            X509v3 Subject Alternative Name: 
                email:mf-admin@sit.kmutt.ac.th
            X509v3 Issuer Alternative Name: 
                email:mf-admin@sit.kmutt.ac.th
            Authority Information Access: 
                CA Issuers - URI:http://capki12.sit.kmutt.ac.th/pki/pub/cacert/cacert.crt

            X509v3 CRL Distribution Points: 
                URI:http://capki12.sit.kmutt.ac.th/pki/pub/crl/cacrl.crl

    Signature Algorithm: sha256WithRSAEncryption
        2a:a5:a9:97:1f:3c:32:45:09:94:0d:42:a9:d3:38:2c:c3:5d:
        09:5d:ed:21:68:25:34:d0:0c:7d:09:34:1e:5a:11:07:80:32:
        15:5d:22:a3:19:11:d3:00:e0:8b:a7:00:c3:48:ad:8e:b3:5e:
        10:e4:d0:e9:10:2b:25:65:d5:5a:c4:c6:10:71:e7:64:97:71:
        2b:a4:3b:2e:82:19:f6:99:dd:f2:2d:59:31:33:a7:72:08:a8:
        66:0f:e2:66:9b:bd:b8:56:d9:53:45:1d:29:5d:63:4a:4d:eb:
        2d:0a:ca:0e:0d:1b:0f:57:12:e4:2c:98:64:09:9f:98:95:ec:
        3c:81:0c:22:f0:14:8f:7e:28:93:e8:f6:26:3a:a6:a0:01:42:
        7b:26:89:cf:30:a1:40:5b:8e:e4:42:8c:61:6c:e5:80:5f:06:
        98:da:b9:81:bd:f1:47:4a:42:3d:8b:fb:e6:6d:44:86:c8:32:
        71:ae:e7:03:10:37:bc:dc:9f:7b:72:97:6f:7f:8d:cd:a2:f1:
        17:a4:f7:3b:17:16:2d:3f:16:85:18:1d:87:0b:bb:28:1c:5c:
        92:7f:3c:b3:1a:a1:5d:bb:26:35:72:35:95:5f:5a:e9:e0:0c:
        d1:a9:91:3f:82:8c:38:f3:24:1b:be:4e:08:74:47:64:4c:cc:
        13:18:5c:a5:2a:50:68:fa:f5:3f:2e:44:3b:9a:80:a7:b5:2e:
        d9:ae:35:1c:60:93:4f:56:b2:8c:c4:6a:ef:cd:c1:7e:40:6b:
        20:b6:46:36:de:52:46:2e:25:46:ca:fb:c7:f6:f0:b1:c0:32:
        85:91:64:34:92:46:2b:08:93:22:f7:61:c7:14:ad:0e:ab:d6:
        80:90:ff:2c:2e:78:c3:0e:a8:dc:0f:1d:1b:4f:e3:2c:26:51:
        ec:fa:08:9d:de:8d:c3:9a:5c:f0:18:95:06:e9:b5:72:31:fd:
        67:81:da:77:a6:9e:2f:44:24:bd:73:d6:39:70:c9:15:86:49:
        7a:ed:db:c9:08:95:52:a7:4b:24:11:fa:78:db:09:21:d2:ee:
        30:bd:2d:58:c0:03:61:0c:6d:1f:7a:2d:ca:9c:f6:29:5c:48:
        77:7e:c7:30:aa:b6:75:c6:33:15:df:ac:1c:cc:08:ec:6a:55:
        ea:23:9a:d5:9d:21:43:f7:44:ce:64:57:b1:8b:04:7a:cc:7f:
        44:8c:b0:e6:75:34:25:62:cb:99:8d:5a:72:f4:f5:21:61:d7:
        69:98:c9:b7:8b:e0:a8:cf:ae:3d:ee:ae:ba:d6:49:c1:2e:aa:
        f1:0a:6e:d3:15:a8:e9:0c:3a:89:cf:33:f0:59:dd:2c:f7:ae:
        8c:15:1f:93:34:62:c7:78:30:52:8d:3a:8a:e8:05:82:6e:70:
        1b:f5:e9:fd:4d:a7:48:d3:8f:62:0a:ea:c3:18:58:1e:40:fc:
        34:d0:03:c7:65:4c:29:40:2e:bc:4f:6a:33:f3:43:5a:bd:ee:
        de:47:3e:fb:ab:42:f6:4b:9e:3a:6b:37:1d:ae:81:78:60:d6:
        57:d8:c1:0d:0f:32:6f:5c:64:c4:e2:2f:d6:f7:44:99:71:9b:
        c8:69:a6:d9:e2:89:d8:16:a2:98:07:5d:f4:89:ff:79:b1:71:
        63:9a:78:ee:37:f1:4e:44:66:16:12:3b:c6:fd:4c:5a:e5:9c:
        e7:b5:24:83:86:98:b3:dc:26:e4:5a:49:63:88:f2:a3:28:c3:
        49:1a:c7:fc:19:86:fd:10:a9:e9:ab:83:1a:4e:47:d8:b9:19:
        de:e9:22:8a:65:07:50:b9:d4:01:f6:93:b9:9f:30:74:23:af:
        07:39:c3:73:81:8c:81:ad:37:24:a1:38:b9:e9:33:80:98:7e:
        e6:cd:b7:5d:3c:57:c0:25:d4:55:37:86:e9:c2:e8:29:dd:b2:
        f8:df:6c:4c:db:2d:59:6a:37:1f:2b:1e:f6:c4:0b:1b:21:8f:
        df:0c:ab:07:55:87:a7:16:65:a3:5e:62:9c:59:e8:65:cc:d1:
        4d:ee:ab:a7:45:cc:a0:d3:81:99:4d:2f:b5:82:99:70:f2:8b:
        ed:5c:74:f6:86:0b:6c:c8:23:44:37:b8:66:d8:0b:39:45:28:
        75:50:fe:ba:02:01:ce:32:83:21:90:c9:22:8b:6e:0d:58:b4:
        31:79:51:f0:84:5a:6e:28:00:b0:d4:3c:36:ce:6d:54:14:75:
        f5:d6:32:87:dc:7a:a3:49:7f:37:30:15:41:3b:0a:1c:f8:5e:
        1b:a4:ea:7e:b8:78:94:9e:d5:00:67:4d:40:02:a8:b2:f6:1f:
        d7:c1:11:fd:97:60:2b:f5:57:18:2f:55:30:38:1d:d9:2f:56:
        e6:26:52:6e:70:f2:b8:bf:6c:8d:c8:3a:c0:54:b4:f8:d5:3f:
        e8:e4:d7:d9:73:ba:de:23:4a:ee:98:0a:66:04:36:0c:8f:28:
        a1:3b:27:88:c7:88:a5:2a:56:b1:c9:49:1f:90:1d:dd:d0:11:
        10:50:91:06:b3:92:9b:4a:6e:8f:6f:52:ff:ec:81:57:42:61:
        6a:52:92:73:58:ec:96:7e:c7:02:2a:6a:23:ae:8f:d5:d6:7c:
        17:ea:ab:df:7a:01:9d:97:a7:19:1f:4d:1c:6f:17:91:c9:07:
        8e:8d:6e:2d:e6:ad:b4:c6:7c:75:35:24:3c:b1:59:9d:04:99:
        ad:3b:79:0f:26:74:d2:7b:d0:e5:50:1b:9f:58:71:ca
-----BEGIN CERTIFICATE-----
MIIKbjCCBlagAwIBAgIBADANBgkqhkiG9w0BAQsFADBUMQswCQYDVQQGEwJUSDEv
MC0GA1UECgwmU2Nob29sIG9mIEluZm9ybWF0aW9uIFRlY2hub2xvZ3kgS01VVFQx
FDASBgNVBAMMC1NJVENlcnRBdXRoMB4XDTE5MDIyNjAzMjcwOFoXDTI5MDIyMzAz
MjcwOFowVDELMAkGA1UEBhMCVEgxLzAtBgNVBAoMJlNjaG9vbCBvZiBJbmZvcm1h
dGlvbiBUZWNobm9sb2d5IEtNVVRUMRQwEgYDVQQDDAtTSVRDZXJ0QXV0aDCCBCIw
DQYJKoZIhvcNAQEBBQADggQPADCCBAoCggQBANyENJzkWdiZMHsa3r+yWdNL9KYl
j8mF1QekJHwP9LXMRO8MOHa+SfIDH9sV+/z2EKp9DQCeJ6s2+wtOwdxnBUCamrpy
eFt6mMxBRBA7PCVigejPw7a+41qtCh106nHCY3+Szj/tIUg/H2vBGt5ZgWHHdRpK
R7gJQ0W8wCNEm3e84ivwP6Fw9qxgPmvBqqJOquqDUAc0jACYezhugw8d34sptvd8
FOF6+qKBp1ksjaqipEfVKaP2pTs11oCXl+VMDiJ2Yoc3/oNbbwRTRtaqNyveBHDP
xhI+9qsUqT3D58SAQwV4e0PVBjU0OpiXYFpi97v9n/Fl8ynnz4zkhaoTszpKcrvr
NcvbUBmzKevUbnRbLimpJe3LFRrrGQggnJVTMkvbLJ/QksAUMzZ5q1lLPHvqkgAd
1uIjUHBvX5imQ5/E6/ytjrYgdLo4qaMD8ZiK2riDocNiMe098pqrkL0tVeIwISml
ntyTIaZf91rTp/NCfcBHCeshkNmPwOybmiQtGAciUUo3++/YMF1t5SWeTqO/lwWh
JTP9FcHfBBfEawiAGRsUa9noqh6YVdy8A1z2JwjlbRyWdC/dMUuY1fkZLsWk6HnX
NSulzMshUHPPrJJq2mhnbGZmRAqWg2BQRwYwtDleIB88gs16CsqR2vSCs5La2X6u
G8x1W4acsK2nMxCgE9nkm/Ig3KT/qaX8Y0nZOOAIjO7SK7Q6s9h/GxAeuWHDiFPF
FjEH/fsanskr63ecbPPd6mPHGRXGAjBuX+yySZbbnsIrmCdiSN++rYn8Sl8AOLLv
0WaL00Pdf1AZkahJs9X8G+A34hsyu92UnK7qDP413Ny7jlRxqel5COar6LE0av63
43hj8R69iYU281i+POv6QNgTpl7eyfAk3KrXrk7ROIqg/aODgtGEMMRRtMhIJw6z
PJP72s1zXYh+NJFGqtxufdCkf5lX+Vvtqy+wd8JR787NUmzcsjud4IEu+tvdMEg7
HMuPe23g3Ityculxtihko9ZO5vaA4mqC7sNMXKuQUgtNP9D11JdeZG27B8By2wjP
toHlY/oCsG0lZx2XsIEtV8kr/ED3/bOEBsnge47DAXDW6QOnLymYbnYNn7YDUTAh
qyNT0YvYMKlbxcHxWlp7NlxTqxZl0fdg6CmJBlCxw8+I62OaRB+m5dyT9LcMMTt6
Btl9dhUm6WL9E4NSKV4sHgZAdNyavB0sRftmuUj0/8K/CNJ+hfJHD6PpENMUQcdV
BTX977utdFJKtJeliqMnRPBchq2mhPaF3iUAtWuquAHO+9TOxMG08ytUZVsDKUdl
XY73R8QbzdVrALvE2wnumuYm5SXpZqxkuEdwS4f3iesa7Q0qgqup8lO2T2kCAwEA
AaOCAUkwggFFMA8GA1UdEwEB/wQFMAMBAf8wCwYDVR0PBAQDAgEGMB0GA1UdDgQW
BBRYSry1VrntRb/o+MS/Txi5oY4kGjAfBgNVHSMEGDAWgBRYSry1VrntRb/o+MS/
Txi5oY4kGjAjBgNVHREEHDAagRhtZi1hZG1pbkBzaXQua211dHQuYWMudGgwIwYD
VR0SBBwwGoEYbWYtYWRtaW5Ac2l0LmttdXR0LmFjLnRoMFQGCCsGAQUFBwEBBEgw
RjBEBggrBgEFBQcwAoY4aHR0cDovL2NhcGtpMTIuc2l0LmttdXR0LmFjLnRoL3Br
aS9wdWIvY2FjZXJ0L2NhY2VydC5jcnQwRQYDVR0fBD4wPDA6oDigNoY0aHR0cDov
L2NhcGtpMTIuc2l0LmttdXR0LmFjLnRoL3BraS9wdWIvY3JsL2NhY3JsLmNybDAN
BgkqhkiG9w0BAQsFAAOCBAEAKqWplx88MkUJlA1CqdM4LMNdCV3tIWglNNAMfQk0
HloRB4AyFV0ioxkR0wDgi6cAw0itjrNeEOTQ6RArJWXVWsTGEHHnZJdxK6Q7LoIZ
9pnd8i1ZMTOncgioZg/iZpu9uFbZU0UdKV1jSk3rLQrKDg0bD1cS5CyYZAmfmJXs
PIEMIvAUj34ok+j2JjqmoAFCeyaJzzChQFuO5EKMYWzlgF8GmNq5gb3xR0pCPYv7
5m1Ehsgyca7nAxA3vNyfe3KXb3+NzaLxF6T3OxcWLT8WhRgdhwu7KBxckn88sxqh
XbsmNXI1lV9a6eAM0amRP4KMOPMkG75OCHRHZEzMExhcpSpQaPr1Py5EO5qAp7Uu
2a41HGCTT1ayjMRq783BfkBrILZGNt5SRi4lRsr7x/bwscAyhZFkNJJGKwiTIvdh
xxStDqvWgJD/LC54ww6o3A8dG0/jLCZR7PoInd6Nw5pc8BiVBum1cjH9Z4Had6ae
L0QkvXPWOXDJFYZJeu3byQiVUqdLJBH6eNsJIdLuML0tWMADYQxtH3otypz2KVxI
d37HMKq2dcYzFd+sHMwI7GpV6iOa1Z0hQ/dEzmRXsYsEesx/RIyw5nU0JWLLmY1a
cvT1IWHXaZjJt4vgqM+uPe6uutZJwS6q8Qpu0xWo6Qw6ic8z8FndLPeujBUfkzRi
x3gwUo06iugFgm5wG/Xp/U2nSNOPYgrqwxhYHkD8NNADx2VMKUAuvE9qM/NDWr3u
3kc++6tC9kueOms3Ha6BeGDWV9jBDQ8yb1xkxOIv1vdEmXGbyGmm2eKJ2BaimAdd
9In/ebFxY5p47jfxTkRmFhI7xv1MWuWc57Ukg4aYs9wm5FpJY4jyoyjDSRrH/BmG
/RCp6auDGk5H2LkZ3ukiimUHULnUAfaTuZ8wdCOvBznDc4GMga03JKE4uekzgJh+
5s23XTxXwCXUVTeG6cLoKd2y+N9sTNstWWo3Hyse9sQLGyGP3wyrB1WHpxZlo15i
nFnoZczRTe6rp0XMoNOBmU0vtYKZcPKL7Vx09oYLbMgjRDe4ZtgLOUUodVD+ugIB
zjKDIZDJIotuDVi0MXlR8IRabigAsNQ8Ns5tVBR19dYyh9x6o0l/NzAVQTsKHPhe
G6Tqfrh4lJ7VAGdNQAKosvYf18ER/ZdgK/VXGC9VMDgd2S9W5iZSbnDyuL9sjcg6
wFS0+NU/6OTX2XO63iNK7pgKZgQ2DI8ooTsniMeIpSpWsclJH5Ad3dAREFCRBrOS
m0puj29S/+yBV0JhalKSc1jsln7HAipqI66P1dZ8F+qr33oBnZenGR9NHG8XkckH
jo1uLeattMZ8dTUkPLFZnQSZrTt5DyZ00nvQ5VAbn1hxyg==
-----END CERTIFICATE-----
